; Function Attrs: nounwind uwtable
define dso_local ptr @index_vacuum_cleanup(ptr noundef %0, ptr noundef %1) local_unnamed_addr #0 {
  %3 = load ptr, ptr %0, align 8
  %4 = getelementptr inbounds nuw i8, ptr %3, i64 72
  %5 = load i32, ptr %4, align 8
  %6 = tail call zeroext i1 @ReindexIsProcessingIndex(i32 noundef %5) #7
  br i1 %6, label %7, label %14, !prof !4

7:                                                ; preds = %2
  %8 = tail call zeroext i1 @errstart_cold(i32 noundef 21, ptr noundef null) #8
  tail call void @llvm.assume(i1 %8)
  %9 = tail call i32 @errcode(i32 noundef 1088) #7
  %10 = getelementptr inbounds nuw i8, ptr %3, i64 56
  %11 = load ptr, ptr %10, align 8
  %12 = getelementptr inbounds nuw i8, ptr %11, i64 4
  %13 = tail call i32 (ptr, ...) @errmsg(ptr noundef nonnull @.str, ptr noundef nonnull %12) #7
  tail call void @errfinish(ptr noundef nonnull @.str.1, i32 noundef 776, ptr noundef nonnull @__func__.index_vacuum_cleanup) #7
  unreachable

14:                                               ; preds = %2
  %15 = getelementptr inbounds nuw i8, ptr %3, i64 352
  %16 = load ptr, ptr %15, align 8
  %17 = getelementptr inbounds nuw i8, ptr %16, i64 72
  %18 = load ptr, ptr %17, align 8
  %19 = icmp eq ptr %18, null
  br i1 %19, label %20, label %26

20:                                               ; preds = %14
  %21 = tail call zeroext i1 @errstart_cold(i32 noundef 21, ptr noundef null) #8
  tail call void @llvm.assume(i1 %21)
  %22 = getelementptr inbounds nuw i8, ptr %3, i64 56
  %23 = load ptr, ptr %22, align 8
  %24 = getelementptr inbounds nuw i8, ptr %23, i64 4
  %25 = tail call i32 (ptr, ...) @errmsg_internal(ptr noundef nonnull @.str.2, ptr noundef nonnull @.str.11, ptr noundef nonnull %24) #7
  tail call void @errfinish(ptr noundef nonnull @.str.1, i32 noundef 777, ptr noundef nonnull @__func__.index_vacuum_cleanup) #7
  unreachable

26:                                               ; preds = %14
  %27 = tail call ptr %18(ptr noundef nonnull %0, ptr noundef %1) #7
  ret ptr %27
}